; Function Attrs: mustprogress uwtable
define void @_ZN5folly10SSLContext10setOptionsEl(ptr noundef nonnull readonly align 8 captures(none) dereferenceable(304) %0, i64 noundef %1) local_unnamed_addr #2 align 2 personality ptr @__gxx_personality_v0 {
  %3 = getelementptr inbounds nuw i8, ptr %0, i64 8
  %4 = load ptr, ptr %3, align 8, !tbaa !10
  %5 = tail call i64 @SSL_CTX_set_options(ptr noundef %4, i64 noundef %1)
  %6 = and i64 %5, %1
  %.not = icmp eq i64 %6, %1
  br i1 %.not, label %12, label %7

7:                                                ; preds = %2
  %8 = tail call ptr @__cxa_allocate_exception(i64 16) #29
  invoke void @_ZNSt13runtime_errorC1EPKc(ptr noundef nonnull align 8 dereferenceable(16) %8, ptr noundef nonnull @.str.79)
          to label %9 unwind label %10

9:                                                ; preds = %7
  tail call void @__cxa_throw(ptr nonnull %8, ptr nonnull @_ZTISt13runtime_error, ptr nonnull @_ZNSt13runtime_errorD1Ev) #32
  unreachable

10:                                               ; preds = %7
  %11 = landingpad { ptr, i32 }
          cleanup
  tail call void @__cxa_free_exception(ptr nonnull %8) #29
  resume { ptr, i32 } %11

12:                                               ; preds = %2
  ret void
}